target datalayout = "e-m:e-p270:32:32-p271:32:32-p272:64:64-i64:64-i128:128-f80:128-n8:16:32:64-S128"
target triple = "x86_64-pc-linux-gnu"

%struct.lua_TValue = type { %union.Value, [1 x i32], i32 }
%union.Value = type { ptr }
%struct.lua_State = type { i8, i8, i8, i8, i8, i8, i8, ptr, ptr, ptr, ptr, ptr, ptr, ptr, ptr, i32, i32, i16, i16, i32, ptr, ptr, ptr, ptr, ptr }
%struct.global_State = type { %struct.stringtable, ptr, ptr, i8, i8, ptr, ptr, ptr, i64, i64, i32, i32, i32, [40 x ptr], [40 x ptr], ptr, ptr, ptr, [256 x i64], ptr, %struct.UpVal, [11 x ptr], [11 x ptr], [21 x ptr], %struct.lua_TValue, %struct.lua_TValue, i32, ptr, i64, [4 x i64], %struct.lua_Callbacks, %struct.lua_ExecutionCallbacks, [128 x ptr], [128 x ptr], [128 x ptr], %struct.GCStats }
%struct.stringtable = type { ptr, i32, i32 }
%struct.UpVal = type { i8, i8, i8, i8, ptr, %union.anon.3 }
%union.anon.3 = type { %struct.anon.4 }
%struct.anon.4 = type { ptr, ptr, ptr }
%struct.lua_Callbacks = type { ptr, ptr, ptr, ptr, ptr, ptr, ptr, ptr, ptr, ptr }
%struct.lua_ExecutionCallbacks = type { ptr, ptr, ptr, ptr, ptr, ptr, ptr }
%struct.GCStats = type { [32 x i32], i32, i32, i64, i64, i64, double, double, double }
%struct.TString = type { i8, i8, i8, i16, ptr, i32, i32, [1 x i8] }

@luaO_nilobject_ = external hidden global %struct.lua_TValue, align 8

; Function Attrs: alwaysinline mustprogress uwtable
define internal noundef ptr @_ZL10index2addrP9lua_Statei(ptr noundef %0, i32 noundef %1) #2 {
  %3 = alloca ptr, align 8
  %4 = alloca ptr, align 8
  %5 = alloca i32, align 4
  %6 = alloca ptr, align 8
  %7 = alloca i32, align 4
  store ptr %0, ptr %4, align 8, !tbaa !4
  store i32 %1, ptr %5, align 4, !tbaa !9
  %8 = load i32, ptr %5, align 4, !tbaa !9
  %9 = icmp sgt i32 %8, 0
  br i1 %9, label %10, label %27

10:                                               ; preds = %2
  call void @llvm.lifetime.start.p0(i64 8, ptr %6) #11
  %11 = load ptr, ptr %4, align 8, !tbaa !4
  %12 = getelementptr inbounds nuw %struct.lua_State, ptr %11, i32 0, i32 8
  %13 = load ptr, ptr %12, align 8, !tbaa !13
  %14 = load i32, ptr %5, align 4, !tbaa !9
  %15 = sub nsw i32 %14, 1
  %16 = sext i32 %15 to i64
  %17 = getelementptr inbounds %struct.lua_TValue, ptr %13, i64 %16
  store ptr %17, ptr %6, align 8, !tbaa !11
  %18 = load ptr, ptr %6, align 8, !tbaa !11
  %19 = load ptr, ptr %4, align 8, !tbaa !4
  %20 = getelementptr inbounds nuw %struct.lua_State, ptr %19, i32 0, i32 7
  %21 = load ptr, ptr %20, align 8, !tbaa !23
  %22 = icmp uge ptr %18, %21
  br i1 %22, label %23, label %24

23:                                               ; preds = %10
  store ptr @luaO_nilobject_, ptr %3, align 8
  store i32 1, ptr %7, align 4
  br label %26

24:                                               ; preds = %10
  %25 = load ptr, ptr %6, align 8, !tbaa !11
  store ptr %25, ptr %3, align 8
  store i32 1, ptr %7, align 4
  br label %26

26:                                               ; preds = %24, %23
  call void @llvm.lifetime.end.p0(i64 8, ptr %6) #11
  br label %41

27:                                               ; preds = %2
  %28 = load i32, ptr %5, align 4, !tbaa !9
  %29 = icmp sgt i32 %28, -10000
  br i1 %29, label %30, label %37

30:                                               ; preds = %27
  %31 = load ptr, ptr %4, align 8, !tbaa !4
  %32 = getelementptr inbounds nuw %struct.lua_State, ptr %31, i32 0, i32 7
  %33 = load ptr, ptr %32, align 8, !tbaa !23
  %34 = load i32, ptr %5, align 4, !tbaa !9
  %35 = sext i32 %34 to i64
  %36 = getelementptr inbounds %struct.lua_TValue, ptr %33, i64 %35
  store ptr %36, ptr %3, align 8
  br label %41

37:                                               ; preds = %27
  %38 = load ptr, ptr %4, align 8, !tbaa !4
  %39 = load i32, ptr %5, align 4, !tbaa !9
  %40 = call noundef ptr @_ZL11pseudo2addrP9lua_Statei(ptr noundef %38, i32 noundef %39)
  store ptr %40, ptr %3, align 8
  br label %41

41:                                               ; preds = %37, %30, %26
  %42 = load ptr, ptr %3, align 8
  ret ptr %42
}

; Function Attrs: mustprogress uwtable
define dso_local noundef ptr @_Z16lua_tostringatomP9lua_StateiPi(ptr noundef %0, i32 noundef %1, ptr noundef %2) #0 {
  %4 = alloca ptr, align 8
  %5 = alloca ptr, align 8
  %6 = alloca i32, align 4
  %7 = alloca ptr, align 8
  %8 = alloca ptr, align 8
  %9 = alloca i32, align 4
  %10 = alloca ptr, align 8
  store ptr %0, ptr %5, align 8, !tbaa !4
  store i32 %1, ptr %6, align 4, !tbaa !9
  store ptr %2, ptr %7, align 8, !tbaa !65
  call void @llvm.lifetime.start.p0(i64 8, ptr %8) #11
  %11 = load ptr, ptr %5, align 8, !tbaa !4
  %12 = load i32, ptr %6, align 4, !tbaa !9
  %13 = call noundef ptr @_ZL10index2addrP9lua_Statei(ptr noundef %11, i32 noundef %12)
  store ptr %13, ptr %8, align 8, !tbaa !11
  %14 = load ptr, ptr %8, align 8, !tbaa !11
  %15 = getelementptr inbounds nuw %struct.lua_TValue, ptr %14, i32 0, i32 2
  %16 = load i32, ptr %15, align 4, !tbaa !49
  %17 = icmp eq i32 %16, 5
  br i1 %17, label %19, label %18

18:                                               ; preds = %3
  store ptr null, ptr %4, align 8
  store i32 1, ptr %9, align 4
  br label %71

19:                                               ; preds = %3
  call void @llvm.lifetime.start.p0(i64 8, ptr %10) #11
  %20 = load ptr, ptr %8, align 8, !tbaa !11
  %21 = getelementptr inbounds nuw %struct.lua_TValue, ptr %20, i32 0, i32 0
  %22 = load ptr, ptr %21, align 8, !tbaa !25
  store ptr %22, ptr %10, align 8, !tbaa !72
  %23 = load ptr, ptr %7, align 8, !tbaa !65
  %24 = icmp ne ptr %23, null
  br i1 %24, label %25, label %67

25:                                               ; preds = %19
  %26 = load ptr, ptr %10, align 8, !tbaa !72
  %27 = getelementptr inbounds nuw %struct.TString, ptr %26, i32 0, i32 3
  %28 = load i16, ptr %27, align 4, !tbaa !73
  %29 = sext i16 %28 to i32
  %30 = icmp eq i32 %29, -32768
  br i1 %30, label %31, label %61

31:                                               ; preds = %25
  %32 = load ptr, ptr %5, align 8, !tbaa !4
  %33 = getelementptr inbounds nuw %struct.lua_State, ptr %32, i32 0, i32 9
  %34 = load ptr, ptr %33, align 8, !tbaa !33
  %35 = getelementptr inbounds nuw %struct.global_State, ptr %34, i32 0, i32 30
  %36 = getelementptr inbounds nuw %struct.lua_Callbacks, ptr %35, i32 0, i32 4
  %37 = load ptr, ptr %36, align 8, !tbaa !74
  %38 = icmp ne ptr %37, null
  br i1 %38, label %39, label %55

39:                                               ; preds = %31
  %40 = load ptr, ptr %5, align 8, !tbaa !4
  %41 = getelementptr inbounds nuw %struct.lua_State, ptr %40, i32 0, i32 9
  %42 = load ptr, ptr %41, align 8, !tbaa !33
  %43 = getelementptr inbounds nuw %struct.global_State, ptr %42, i32 0, i32 30
  %44 = getelementptr inbounds nuw %struct.lua_Callbacks, ptr %43, i32 0, i32 4
  %45 = load ptr, ptr %44, align 8, !tbaa !74
  %46 = load ptr, ptr %10, align 8, !tbaa !72
  %47 = getelementptr inbounds nuw %struct.TString, ptr %46, i32 0, i32 7
  %48 = getelementptr inbounds [1 x i8], ptr %47, i64 0, i64 0
  %49 = load ptr, ptr %10, align 8, !tbaa !72
  %50 = getelementptr inbounds nuw %struct.TString, ptr %49, i32 0, i32 6
  %51 = load i32, ptr %50, align 4, !tbaa !70
  %52 = zext i32 %51 to i64
  %53 = call noundef signext i16 %45(ptr noundef %48, i64 noundef %52)
  %54 = sext i16 %53 to i32
  br label %56

55:                                               ; preds = %31
  br label %56

56:                                               ; preds = %55, %39
  %57 = phi i32 [ %54, %39 ], [ -1, %55 ]
  %58 = trunc i32 %57 to i16
  %59 = load ptr, ptr %10, align 8, !tbaa !72
  %60 = getelementptr inbounds nuw %struct.TString, ptr %59, i32 0, i32 3
  store i16 %58, ptr %60, align 4, !tbaa !73
  br label %61

61:                                               ; preds = %56, %25
  %62 = load ptr, ptr %10, align 8, !tbaa !72
  %63 = getelementptr inbounds nuw %struct.TString, ptr %62, i32 0, i32 3
  %64 = load i16, ptr %63, align 4, !tbaa !73
  %65 = sext i16 %64 to i32
  %66 = load ptr, ptr %7, align 8, !tbaa !65
  store i32 %65, ptr %66, align 4, !tbaa !9
  br label %67

67:                                               ; preds = %61, %19
  %68 = load ptr, ptr %10, align 8, !tbaa !72
  %69 = getelementptr inbounds nuw %struct.TString, ptr %68, i32 0, i32 7
  %70 = getelementptr inbounds [1 x i8], ptr %69, i64 0, i64 0
  store ptr %70, ptr %4, align 8
  store i32 1, ptr %9, align 4
  call void @llvm.lifetime.end.p0(i64 8, ptr %10) #11
  br label %71

71:                                               ; preds = %67, %18
  call void @llvm.lifetime.end.p0(i64 8, ptr %8) #11
  %72 = load ptr, ptr %4, align 8
  ret ptr %72
}