; Function Attrs: mustprogress uwtable
define dso_local noundef ptr @_Z16lua_tostringatomP9lua_StateiPi(ptr noundef readonly captures(none) %0, i32 noundef %1, ptr noundef writeonly %2) local_unnamed_addr #3 {
  %4 = icmp sgt i32 %1, 0
  br i1 %4, label %5, label %13

5:                                                ; preds = %3
  %6 = getelementptr inbounds nuw i8, ptr %0, i64 16
  %7 = load ptr, ptr %6, align 8, !tbaa !4
  %8 = zext nneg i32 %1 to i64
  %9 = getelementptr %struct.lua_TValue, ptr %7, i64 %8
  %10 = getelementptr i8, ptr %9, i64 -16
  %11 = getelementptr inbounds nuw i8, ptr %0, i64 8
  %12 = load ptr, ptr %11, align 8, !tbaa !19
  %.not.i = icmp ult ptr %10, %12
  %.luaO_nilobject_.i = select i1 %.not.i, ptr %10, ptr @luaO_nilobject_
  br label %_ZL10index2addrP9lua_Statei.exit

13:                                               ; preds = %3
  %14 = icmp sgt i32 %1, -10000
  br i1 %14, label %15, label %20

15:                                               ; preds = %13
  %16 = getelementptr inbounds nuw i8, ptr %0, i64 8
  %17 = load ptr, ptr %16, align 8, !tbaa !19
  %18 = sext i32 %1 to i64
  %19 = getelementptr inbounds %struct.lua_TValue, ptr %17, i64 %18
  br label %_ZL10index2addrP9lua_Statei.exit

20:                                               ; preds = %13
  %21 = tail call fastcc noundef ptr @_ZL11pseudo2addrP9lua_Statei(ptr noundef %0, i32 noundef %1)
  br label %_ZL10index2addrP9lua_Statei.exit

_ZL10index2addrP9lua_Statei.exit:                 ; preds = %5, %15, %20
  %.1.i = phi ptr [ %.luaO_nilobject_.i, %5 ], [ %19, %15 ], [ %21, %20 ]
  %22 = getelementptr inbounds nuw i8, ptr %.1.i, i64 12
  %23 = load i32, ptr %22, align 4, !tbaa !47
  %24 = icmp eq i32 %23, 5
  br i1 %24, label %25, label %49

25:                                               ; preds = %_ZL10index2addrP9lua_Statei.exit
  %26 = load ptr, ptr %.1.i, align 8, !tbaa !21
  %.not = icmp eq ptr %2, null
  br i1 %.not, label %47, label %27

27:                                               ; preds = %25
  %28 = getelementptr inbounds nuw i8, ptr %26, i64 4
  %29 = load i16, ptr %28, align 4, !tbaa !63
  %30 = icmp eq i16 %29, -32768
  br i1 %30, label %31, label %44

31:                                               ; preds = %27
  %32 = getelementptr inbounds nuw i8, ptr %0, i64 24
  %33 = load ptr, ptr %32, align 8, !tbaa !30
  %34 = getelementptr inbounds nuw i8, ptr %33, i64 3320
  %35 = load ptr, ptr %34, align 8, !tbaa !64
  %.not16 = icmp eq ptr %35, null
  br i1 %.not16, label %42, label %36

36:                                               ; preds = %31
  %37 = getelementptr inbounds nuw i8, ptr %26, i64 24
  %38 = getelementptr inbounds nuw i8, ptr %26, i64 20
  %39 = load i32, ptr %38, align 4, !tbaa !61
  %40 = zext i32 %39 to i64
  %41 = tail call noundef signext i16 %35(ptr noundef nonnull %37, i64 noundef %40)
  br label %42

42:                                               ; preds = %31, %36
  %43 = phi i16 [ %41, %36 ], [ -1, %31 ]
  store i16 %43, ptr %28, align 4, !tbaa !63
  br label %44

44:                                               ; preds = %42, %27
  %45 = phi i16 [ %43, %42 ], [ %29, %27 ]
  %46 = sext i16 %45 to i32
  store i32 %46, ptr %2, align 4, !tbaa !22
  br label %47

47:                                               ; preds = %44, %25
  %48 = getelementptr inbounds nuw i8, ptr %26, i64 24
  br label %49

49:                                               ; preds = %_ZL10index2addrP9lua_Statei.exit, %47
  %.0 = phi ptr [ %48, %47 ], [ null, %_ZL10index2addrP9lua_Statei.exit ]
  ret ptr %.0
}